target datalayout = "e-m:e-p270:32:32-p271:32:32-p272:64:64-i64:64-i128:128-f80:128-n8:16:32:64-S128"
target triple = "x86_64-unknown-linux-gnu"

%struct.UResourceBundle = type { ptr, ptr, ptr, ptr, ptr, [64 x i8], i32, i32, i8, i8, i32, i32, i32, i32 }
%struct.UResourceDataEntry = type { ptr, ptr, ptr, ptr, ptr, %struct.ResourceData, [3 x i8], i32, i32 }
%struct.ResourceData = type { ptr, ptr, ptr, ptr, i32, i32, ptr, i32, i32, i8, i8, i8, i8 }
%"class.icu_75::ResourceTracer" = type { i8 }
%"class.icu_75::UObject" = type { ptr }
%"class.icu_75::ResourceDataValue" = type <{ %"class.icu_75::ResourceValue", ptr, ptr, i32, %"class.icu_75::ResourceTracer", [3 x i8] }>
%"class.icu_75::ResourceValue" = type { %"class.icu_75::UObject" }

; Function Attrs: mustprogress nounwind uwtable
define linkonce_odr void @_ZN6icu_7517ResourceDataValue11setResourceEjONS_14ResourceTracerE(ptr noundef nonnull align 8 dereferenceable(29) %this, i32 noundef %r, ptr noundef nonnull align 1 dereferenceable(1) %traceInfo) #0 comdat align 2 {
entry:
  %this.addr = alloca ptr, align 8
  %r.addr = alloca i32, align 4
  %traceInfo.addr = alloca ptr, align 8
  store ptr %this, ptr %this.addr, align 8
  store i32 %r, ptr %r.addr, align 4
  store ptr %traceInfo, ptr %traceInfo.addr, align 8
  %this1 = load ptr, ptr %this.addr, align 8
  %0 = load i32, ptr %r.addr, align 4
  %res = getelementptr inbounds %"class.icu_75::ResourceDataValue", ptr %this1, i32 0, i32 3
  store i32 %0, ptr %res, align 8
  ret void
}

; Function Attrs: mustprogress nounwind uwtable
define linkonce_odr void @_ZN6icu_7514ResourceTracerC2EPKv(ptr noundef nonnull align 1 dereferenceable(1) %this, ptr noundef %0) unnamed_addr #0 comdat align 2 {
entry:
  %this.addr = alloca ptr, align 8
  %.addr = alloca ptr, align 8
  store ptr %this, ptr %this.addr, align 8
  store ptr %0, ptr %.addr, align 8
  ret void
}

; Function Attrs: mustprogress nounwind uwtable
define linkonce_odr void @_ZN6icu_7517ResourceDataValue23setValidLocaleDataEntryEP18UResourceDataEntry(ptr noundef nonnull align 8 dereferenceable(29) %this, ptr noundef %entry1) #0 comdat align 2 {
entry:
  %this.addr = alloca ptr, align 8
  %entry.addr = alloca ptr, align 8
  store ptr %this, ptr %this.addr, align 8
  store ptr %entry1, ptr %entry.addr, align 8
  %this2 = load ptr, ptr %this.addr, align 8
  %0 = load ptr, ptr %entry.addr, align 8
  %validLocaleDataEntry = getelementptr inbounds %"class.icu_75::ResourceDataValue", ptr %this2, i32 0, i32 2
  store ptr %0, ptr %validLocaleDataEntry, align 8
  ret void
}

; Function Attrs: mustprogress nounwind uwtable
define linkonce_odr void @_ZN6icu_7517ResourceDataValue7setDataERK12ResourceData(ptr noundef nonnull align 8 dereferenceable(29) %this, ptr noundef nonnull align 8 dereferenceable(64) %data) #0 comdat align 2 {
entry:
  %this.addr = alloca ptr, align 8
  %data.addr = alloca ptr, align 8
  store ptr %this, ptr %this.addr, align 8
  store ptr %data, ptr %data.addr, align 8
  %this1 = load ptr, ptr %this.addr, align 8
  %0 = load ptr, ptr %data.addr, align 8
  %pResData = getelementptr inbounds %"class.icu_75::ResourceDataValue", ptr %this1, i32 0, i32 1
  store ptr %0, ptr %pResData, align 8
  ret void
}

; Function Attrs: mustprogress nounwind uwtable
define linkonce_odr noundef nonnull align 8 dereferenceable(64) ptr @_ZNK15UResourceBundle10getResDataEv(ptr noundef nonnull align 8 dereferenceable(136) %this) #0 comdat align 2 {
entry:
  %this.addr = alloca ptr, align 8
  store ptr %this, ptr %this.addr, align 8
  %this1 = load ptr, ptr %this.addr, align 8
  %fData = getelementptr inbounds %struct.UResourceBundle, ptr %this1, i32 0, i32 1
  %0 = load ptr, ptr %fData, align 8
  %fData2 = getelementptr inbounds %struct.UResourceDataEntry, ptr %0, i32 0, i32 5
  ret ptr %fData2
}

; Function Attrs: mustprogress nounwind uwtable
define internal noundef signext i8 @_ZL9U_FAILURE10UErrorCode(i32 noundef %code) #0 {
entry:
  %code.addr = alloca i32, align 4
  store i32 %code, ptr %code.addr, align 4
  %0 = load i32, ptr %code.addr, align 4
  %cmp = icmp sgt i32 %0, 0
  %conv = zext i1 %cmp to i8
  ret i8 %conv
}

; Function Attrs: mustprogress uwtable
define void @ures_getValueWithFallback_75(ptr noundef %bundle, ptr noundef %path, ptr noundef %tempFillIn, ptr noundef nonnull align 8 dereferenceable(29) %value, ptr noundef nonnull align 4 dereferenceable(4) %errorCode) #1 {
entry:
  %bundle.addr = alloca ptr, align 8
  %path.addr = alloca ptr, align 8
  %tempFillIn.addr = alloca ptr, align 8
  %value.addr = alloca ptr, align 8
  %errorCode.addr = alloca ptr, align 8
  %rb = alloca ptr, align 8
  %ref.tmp = alloca %"class.icu_75::ResourceTracer", align 1
  store ptr %bundle, ptr %bundle.addr, align 8
  store ptr %path, ptr %path.addr, align 8
  store ptr %tempFillIn, ptr %tempFillIn.addr, align 8
  store ptr %value, ptr %value.addr, align 8
  store ptr %errorCode, ptr %errorCode.addr, align 8
  %0 = load ptr, ptr %errorCode.addr, align 8
  %1 = load i32, ptr %0, align 4
  %call = call noundef signext i8 @_ZL9U_FAILURE10UErrorCode(i32 noundef %1)
  %tobool = icmp ne i8 %call, 0
  br i1 %tobool, label %if.then, label %if.end

if.then:                                          ; preds = %entry
  br label %return

if.end:                                           ; preds = %entry
  %2 = load ptr, ptr %path.addr, align 8
  %cmp = icmp eq ptr %2, null
  br i1 %cmp, label %if.then1, label %if.end2

if.then1:                                         ; preds = %if.end
  %3 = load ptr, ptr %errorCode.addr, align 8
  store i32 1, ptr %3, align 4
  br label %return

if.end2:                                          ; preds = %if.end
  %4 = load ptr, ptr %path.addr, align 8
  %5 = load i8, ptr %4, align 1
  %conv = sext i8 %5 to i32
  %cmp3 = icmp eq i32 %conv, 0
  br i1 %cmp3, label %if.then4, label %if.else

if.then4:                                         ; preds = %if.end2
  %6 = load ptr, ptr %bundle.addr, align 8
  store ptr %6, ptr %rb, align 8
  br label %if.end10

if.else:                                          ; preds = %if.end2
  %7 = load ptr, ptr %bundle.addr, align 8
  %8 = load ptr, ptr %path.addr, align 8
  %9 = load ptr, ptr %tempFillIn.addr, align 8
  %10 = load ptr, ptr %errorCode.addr, align 8
  %call5 = call ptr @ures_getByKeyWithFallback_75(ptr noundef %7, ptr noundef %8, ptr noundef %9, ptr noundef %10)
  store ptr %call5, ptr %rb, align 8
  %11 = load ptr, ptr %errorCode.addr, align 8
  %12 = load i32, ptr %11, align 4
  %call6 = call noundef signext i8 @_ZL9U_FAILURE10UErrorCode(i32 noundef %12)
  %tobool7 = icmp ne i8 %call6, 0
  br i1 %tobool7, label %if.then8, label %if.end9

if.then8:                                         ; preds = %if.else
  br label %return

if.end9:                                          ; preds = %if.else
  br label %if.end10

if.end10:                                         ; preds = %if.end9, %if.then4
  %13 = load ptr, ptr %value.addr, align 8
  %14 = load ptr, ptr %rb, align 8
  %call11 = call noundef nonnull align 8 dereferenceable(64) ptr @_ZNK15UResourceBundle10getResDataEv(ptr noundef nonnull align 8 dereferenceable(136) %14)
  call void @_ZN6icu_7517ResourceDataValue7setDataERK12ResourceData(ptr noundef nonnull align 8 dereferenceable(29) %13, ptr noundef nonnull align 8 dereferenceable(64) %call11)
  %15 = load ptr, ptr %value.addr, align 8
  %16 = load ptr, ptr %rb, align 8
  %fValidLocaleDataEntry = getelementptr inbounds %struct.UResourceBundle, ptr %16, i32 0, i32 3
  %17 = load ptr, ptr %fValidLocaleDataEntry, align 8
  call void @_ZN6icu_7517ResourceDataValue23setValidLocaleDataEntryEP18UResourceDataEntry(ptr noundef nonnull align 8 dereferenceable(29) %15, ptr noundef %17)
  %18 = load ptr, ptr %value.addr, align 8
  %19 = load ptr, ptr %rb, align 8
  %fRes = getelementptr inbounds %struct.UResourceBundle, ptr %19, i32 0, i32 7
  %20 = load i32, ptr %fRes, align 4
  %21 = load ptr, ptr %rb, align 8
  call void @_ZN6icu_7514ResourceTracerC2EPKv(ptr noundef nonnull align 1 dereferenceable(1) %ref.tmp, ptr noundef %21)
  call void @_ZN6icu_7517ResourceDataValue11setResourceEjONS_14ResourceTracerE(ptr noundef nonnull align 8 dereferenceable(29) %18, i32 noundef %20, ptr noundef nonnull align 1 dereferenceable(1) %ref.tmp)
  br label %return

return:                                           ; preds = %if.end10, %if.then8, %if.then1, %if.then
  ret void
}