; Function Attrs: mustprogress uwtable
define void @ures_getValueWithFallback_75(ptr noundef %bundle, ptr noundef %path, ptr noundef %tempFillIn, ptr nocapture noundef nonnull writeonly align 8 dereferenceable(29) %value, ptr noundef nonnull align 4 dereferenceable(4) %errorCode) local_unnamed_addr #1 {
entry:
  %0 = load i32, ptr %errorCode, align 4
  %cmp.i = icmp slt i32 %0, 1
  br i1 %cmp.i, label %if.end, label %return

if.end:                                           ; preds = %entry
  %cmp = icmp eq ptr %path, null
  br i1 %cmp, label %if.then1, label %if.end2

if.then1:                                         ; preds = %if.end
  store i32 1, ptr %errorCode, align 4
  br label %return

if.end2:                                          ; preds = %if.end
  %1 = load i8, ptr %path, align 1
  %cmp3 = icmp eq i8 %1, 0
  br i1 %cmp3, label %if.end10, label %if.else

if.else:                                          ; preds = %if.end2
  %call5 = tail call ptr @ures_getByKeyWithFallback_75(ptr noundef %bundle, ptr noundef nonnull %path, ptr noundef %tempFillIn, ptr noundef nonnull %errorCode)
  %2 = load i32, ptr %errorCode, align 4
  %cmp.i12 = icmp slt i32 %2, 1
  br i1 %cmp.i12, label %if.end10, label %return

if.end10:                                         ; preds = %if.end2, %if.else
  %rb.0 = phi ptr [ %call5, %if.else ], [ %bundle, %if.end2 ]
  %fData.i = getelementptr inbounds i8, ptr %rb.0, i64 8
  %3 = load ptr, ptr %fData.i, align 8
  %fData2.i = getelementptr inbounds i8, ptr %3, i64 40
  %pResData.i = getelementptr inbounds i8, ptr %value, i64 8
  store ptr %fData2.i, ptr %pResData.i, align 8
  %fValidLocaleDataEntry = getelementptr inbounds i8, ptr %rb.0, i64 24
  %4 = load ptr, ptr %fValidLocaleDataEntry, align 8
  %validLocaleDataEntry.i = getelementptr inbounds i8, ptr %value, i64 16
  store ptr %4, ptr %validLocaleDataEntry.i, align 8
  %fRes = getelementptr inbounds i8, ptr %rb.0, i64 108
  %5 = load i32, ptr %fRes, align 4
  %res.i = getelementptr inbounds i8, ptr %value, i64 24
  store i32 %5, ptr %res.i, align 8
  br label %return

return:                                           ; preds = %if.else, %entry, %if.end10, %if.then1
  ret void
}